target datalayout = "e-m:e-p270:32:32-p271:32:32-p272:64:64-i64:64-i128:128-f80:128-n8:16:32:64-S128"
target triple = "x86_64-pc-linux-gnu"

@.str.6 = private unnamed_addr constant [2 x i8] c"r\00", align 1
@.str.46 = private unnamed_addr constant [3 x i8] c"%s\00", align 1
@.str.264 = private unnamed_addr constant [16 x i8] c"/proc/self/maps\00", align 1
@.str.265 = private unnamed_addr constant [29 x i8] c"Range [%llx-%llx) contains: \00", align 1
@.str.266 = private unnamed_addr constant [10 x i8] c"%llx-%llx\00", align 1
@.str.267 = private unnamed_addr constant [9 x i8] c"nothing.\00", align 1

; Function Attrs: mustprogress nounwind uwtable
define hidden void @_ZN2os21print_memory_mappingsEPcmP12outputStream(ptr noundef %0, i64 noundef %1, ptr noundef %2) #1 align 2 {
  %4 = alloca ptr, align 8
  %5 = alloca i64, align 8
  %6 = alloca ptr, align 8
  %7 = alloca i64, align 8
  %8 = alloca i64, align 8
  %9 = alloca ptr, align 8
  %10 = alloca i32, align 4
  %11 = alloca [512 x i8], align 16
  %12 = alloca i64, align 8
  %13 = alloca i64, align 8
  store ptr %0, ptr %4, align 8
  store i64 %1, ptr %5, align 8
  store ptr %2, ptr %6, align 8
  %14 = load ptr, ptr %4, align 8
  %15 = ptrtoint ptr %14 to i64
  store i64 %15, ptr %7, align 8
  %16 = load i64, ptr %7, align 8
  %17 = load i64, ptr %5, align 8
  %18 = add i64 %16, %17
  store i64 %18, ptr %8, align 8
  %19 = call noundef ptr @_ZN2os5fopenEPKcS1_(ptr noundef @.str.264, ptr noundef @.str.6)
  store ptr %19, ptr %9, align 8
  store i32 0, ptr %10, align 4
  %20 = load ptr, ptr %9, align 8
  %21 = icmp ne ptr %20, null
  br i1 %21, label %22, label %59

22:                                               ; preds = %3
  %23 = load ptr, ptr %6, align 8
  %24 = load i64, ptr %7, align 8
  %25 = load i64, ptr %8, align 8
  call void (ptr, ptr, ...) @_ZN12outputStream8print_crEPKcz(ptr noundef nonnull align 8 dereferenceable(56) %23, ptr noundef @.str.265, i64 noundef %24, i64 noundef %25)
  br label %26

26:                                               ; preds = %50, %22
  %27 = getelementptr inbounds [512 x i8], ptr %11, i64 0, i64 0
  %28 = load ptr, ptr %9, align 8
  %29 = call ptr @fgets(ptr noundef %27, i32 noundef 512, ptr noundef %28)
  %30 = getelementptr inbounds [512 x i8], ptr %11, i64 0, i64 0
  %31 = icmp eq ptr %29, %30
  br i1 %31, label %32, label %51

32:                                               ; preds = %26
  store i64 0, ptr %12, align 8
  store i64 0, ptr %13, align 8
  %33 = getelementptr inbounds [512 x i8], ptr %11, i64 0, i64 0
  %34 = call i32 (ptr, ptr, ...) @__isoc99_sscanf(ptr noundef %33, ptr noundef @.str.266, ptr noundef %12, ptr noundef %13) #12
  %35 = icmp eq i32 %34, 2
  br i1 %35, label %36, label %50

36:                                               ; preds = %32
  %37 = load i64, ptr %12, align 8
  %38 = load i64, ptr %8, align 8
  %39 = icmp ult i64 %37, %38
  br i1 %39, label %40, label %49

40:                                               ; preds = %36
  %41 = load i64, ptr %13, align 8
  %42 = load i64, ptr %7, align 8
  %43 = icmp ugt i64 %41, %42
  br i1 %43, label %44, label %49

44:                                               ; preds = %40
  %45 = load i32, ptr %10, align 4
  %46 = add nsw i32 %45, 1
  store i32 %46, ptr %10, align 4
  %47 = load ptr, ptr %6, align 8
  %48 = getelementptr inbounds [512 x i8], ptr %11, i64 0, i64 0
  call void (ptr, ptr, ...) @_ZN12outputStream5printEPKcz(ptr noundef nonnull align 8 dereferenceable(56) %47, ptr noundef @.str.46, ptr noundef %48)
  br label %49

49:                                               ; preds = %44, %40, %36
  br label %50

50:                                               ; preds = %49, %32
  br label %26, !llvm.loop !47

51:                                               ; preds = %26
  %52 = load ptr, ptr %9, align 8
  %53 = call i32 @fclose(ptr noundef %52)
  %54 = load i32, ptr %10, align 4
  %55 = icmp eq i32 %54, 0
  br i1 %55, label %56, label %58

56:                                               ; preds = %51
  %57 = load ptr, ptr %6, align 8
  call void (ptr, ptr, ...) @_ZN12outputStream8print_crEPKcz(ptr noundef nonnull align 8 dereferenceable(56) %57, ptr noundef @.str.267)
  br label %58

58:                                               ; preds = %56, %51
  br label %59

59:                                               ; preds = %58, %3
  ret void
}