; Function Attrs: mustprogress nounwind uwtable
define hidden void @_ZN2os21print_memory_mappingsEPcmP12outputStream(ptr noundef %0, i64 noundef %1, ptr noundef %2) local_unnamed_addr #0 align 2 {
  %4 = alloca [512 x i8], align 16
  %5 = alloca i64, align 8
  %6 = alloca i64, align 8
  %7 = ptrtoint ptr %0 to i64
  %8 = add i64 %7, %1
  %9 = tail call noundef ptr @_ZN2os5fopenEPKcS1_(ptr noundef nonnull @.str.264, ptr noundef nonnull @.str.6) #26
  %.not = icmp eq ptr %9, null
  br i1 %.not, label %28, label %10

10:                                               ; preds = %3
  tail call void (ptr, ptr, ...) @_ZN12outputStream8print_crEPKcz(ptr noundef nonnull align 8 dereferenceable(56) %2, ptr noundef nonnull @.str.265, i64 noundef %7, i64 noundef %8) #26
  %11 = call ptr @fgets(ptr noundef nonnull %4, i32 noundef 512, ptr noundef nonnull %9)
  %12 = icmp eq ptr %11, %4
  br i1 %12, label %.lr.ph, label %._crit_edge.thread

._crit_edge.thread:                               ; preds = %10
  %13 = call i32 @fclose(ptr noundef nonnull %9)
  br label %27

.lr.ph:                                           ; preds = %10, %22
  %.019 = phi i32 [ %.1, %22 ], [ 0, %10 ]
  store i64 0, ptr %5, align 8
  store i64 0, ptr %6, align 8
  %14 = call i32 (ptr, ptr, ...) @__isoc99_sscanf(ptr noundef nonnull %4, ptr noundef nonnull @.str.266, ptr noundef nonnull %5, ptr noundef nonnull %6) #26
  %15 = icmp eq i32 %14, 2
  %16 = load i64, ptr %5, align 8
  %17 = icmp ult i64 %16, %8
  %or.cond = select i1 %15, i1 %17, i1 false
  %18 = load i64, ptr %6, align 8
  %19 = icmp ugt i64 %18, %7
  %or.cond18 = select i1 %or.cond, i1 %19, i1 false
  br i1 %or.cond18, label %20, label %22

20:                                               ; preds = %.lr.ph
  %21 = add nsw i32 %.019, 1
  call void (ptr, ptr, ...) @_ZN12outputStream5printEPKcz(ptr noundef nonnull align 8 dereferenceable(56) %2, ptr noundef nonnull @.str.46, ptr noundef nonnull %4) #26
  br label %22

22:                                               ; preds = %20, %.lr.ph
  %.1 = phi i32 [ %21, %20 ], [ %.019, %.lr.ph ]
  %23 = call ptr @fgets(ptr noundef nonnull %4, i32 noundef 512, ptr noundef nonnull %9)
  %24 = icmp eq ptr %23, %4
  br i1 %24, label %.lr.ph, label %._crit_edge, !llvm.loop !51

._crit_edge:                                      ; preds = %22
  %25 = icmp eq i32 %.1, 0
  %26 = call i32 @fclose(ptr noundef nonnull %9)
  br i1 %25, label %27, label %28

27:                                               ; preds = %._crit_edge.thread, %._crit_edge
  call void (ptr, ptr, ...) @_ZN12outputStream8print_crEPKcz(ptr noundef nonnull align 8 dereferenceable(56) %2, ptr noundef nonnull @.str.267) #26
  br label %28

28:                                               ; preds = %._crit_edge, %27, %3
  ret void
}